target datalayout = "e-m:e-p270:32:32-p271:32:32-p272:64:64-i64:64-i128:128-f80:128-n8:16:32:64-S128"
target triple = "x86_64-unknown-linux-gnu"

%"class.std::__cxx11::basic_string" = type { %"struct.std::__cxx11::basic_string<char>::_Alloc_hider", i64, %union.anon }
%"struct.std::__cxx11::basic_string<char>::_Alloc_hider" = type { ptr }
%union.anon = type { i64, [8 x i8] }
%"class.nlohmann::json_abi_v3_11_3::detail::iterator_input_adapter" = type { ptr, ptr }
%"class.nlohmann::json_abi_v3_11_3::detail::lexer" = type <{ %"class.nlohmann::json_abi_v3_11_3::detail::iterator_input_adapter", i8, [3 x i8], i32, i8, [7 x i8], %"struct.nlohmann::json_abi_v3_11_3::detail::position_t", %"class.std::vector", %"class.std::__cxx11::basic_string", ptr, i64, i64, double, i32, [4 x i8] }>
%"struct.nlohmann::json_abi_v3_11_3::detail::position_t" = type { i64, i64, i64 }
%"class.std::vector" = type { %"struct.std::_Vector_base" }
%"struct.std::_Vector_base" = type { %"struct.std::_Vector_base<char, std::allocator<char>>::_Vector_impl" }
%"struct.std::_Vector_base<char, std::allocator<char>>::_Vector_impl" = type { %"struct.std::_Vector_base<char, std::allocator<char>>::_Vector_impl_data" }
%"struct.std::_Vector_base<char, std::allocator<char>>::_Vector_impl_data" = type { ptr, ptr, ptr }
%struct.lconv = type { ptr, ptr, ptr, ptr, ptr, ptr, ptr, ptr, ptr, ptr, i8, i8, i8, i8, i8, i8, i8, i8, i8, i8, i8, i8, i8, i8 }

@.str = private unnamed_addr constant [1 x i8] zeroinitializer, align 1

; Function Attrs: mustprogress nounwind uwtable
define linkonce_odr dso_local void @_ZNSt12_Vector_baseIcSaIcEE17_Vector_impl_dataC2Ev(ptr noundef nonnull align 8 dereferenceable(24) %this) unnamed_addr #1 comdat align 2 {
entry:
  %this.addr = alloca ptr, align 8
  store ptr %this, ptr %this.addr, align 8
  %this1 = load ptr, ptr %this.addr, align 8
  %_M_start = getelementptr inbounds %"struct.std::_Vector_base<char, std::allocator<char>>::_Vector_impl_data", ptr %this1, i32 0, i32 0
  store ptr null, ptr %_M_start, align 8
  %_M_finish = getelementptr inbounds %"struct.std::_Vector_base<char, std::allocator<char>>::_Vector_impl_data", ptr %this1, i32 0, i32 1
  store ptr null, ptr %_M_finish, align 8
  %_M_end_of_storage = getelementptr inbounds %"struct.std::_Vector_base<char, std::allocator<char>>::_Vector_impl_data", ptr %this1, i32 0, i32 2
  store ptr null, ptr %_M_end_of_storage, align 8
  ret void
}

; Function Attrs: mustprogress nounwind uwtable
define linkonce_odr dso_local void @_ZNSt12_Vector_baseIcSaIcEE12_Vector_implC2Ev(ptr noundef nonnull align 8 dereferenceable(24) %this) unnamed_addr #1 comdat align 2 {
entry:
  %this.addr = alloca ptr, align 8
  store ptr %this, ptr %this.addr, align 8
  %this1 = load ptr, ptr %this.addr, align 8
  call void @_ZNSaIcEC2Ev(ptr noundef nonnull align 1 dereferenceable(1) %this1) #16
  call void @_ZNSt12_Vector_baseIcSaIcEE17_Vector_impl_dataC2Ev(ptr noundef nonnull align 8 dereferenceable(24) %this1) #16
  ret void
}

; Function Attrs: mustprogress nounwind uwtable
define linkonce_odr dso_local void @_ZN8nlohmann16json_abi_v3_11_36detail22iterator_input_adapterIPKcEC2ES4_S4_(ptr noundef nonnull align 8 dereferenceable(16) %this, ptr noundef %first, ptr noundef %last) unnamed_addr #1 comdat align 2 {
entry:
  %this.addr = alloca ptr, align 8
  %first.addr = alloca ptr, align 8
  %last.addr = alloca ptr, align 8
  store ptr %this, ptr %this.addr, align 8
  store ptr %first, ptr %first.addr, align 8
  store ptr %last, ptr %last.addr, align 8
  %this1 = load ptr, ptr %this.addr, align 8
  %current = getelementptr inbounds %"class.nlohmann::json_abi_v3_11_3::detail::iterator_input_adapter", ptr %this1, i32 0, i32 0
  %0 = load ptr, ptr %first.addr, align 8
  store ptr %0, ptr %current, align 8
  %end = getelementptr inbounds %"class.nlohmann::json_abi_v3_11_3::detail::iterator_input_adapter", ptr %this1, i32 0, i32 1
  %1 = load ptr, ptr %last.addr, align 8
  store ptr %1, ptr %end, align 8
  ret void
}

; Function Attrs: mustprogress nounwind uwtable
define linkonce_odr dso_local void @_ZNSt12_Vector_baseIcSaIcEEC2Ev(ptr noundef nonnull align 8 dereferenceable(24) %this) unnamed_addr #1 comdat align 2 {
entry:
  %this.addr = alloca ptr, align 8
  store ptr %this, ptr %this.addr, align 8
  %this1 = load ptr, ptr %this.addr, align 8
  %_M_impl = getelementptr inbounds %"struct.std::_Vector_base", ptr %this1, i32 0, i32 0
  call void @_ZNSt12_Vector_baseIcSaIcEE12_Vector_implC2Ev(ptr noundef nonnull align 8 dereferenceable(24) %_M_impl) #16
  ret void
}

; Function Attrs: mustprogress uwtable
define linkonce_odr dso_local { ptr, ptr } @_ZN8nlohmann16json_abi_v3_11_36detail30iterator_input_adapter_factoryIPKcvE6createES4_S4_(ptr noundef %first, ptr noundef %last) #4 comdat align 2 {
entry:
  %retval = alloca %"class.nlohmann::json_abi_v3_11_3::detail::iterator_input_adapter", align 8
  %first.addr = alloca ptr, align 8
  %last.addr = alloca ptr, align 8
  store ptr %first, ptr %first.addr, align 8
  store ptr %last, ptr %last.addr, align 8
  %0 = load ptr, ptr %first.addr, align 8
  %1 = load ptr, ptr %last.addr, align 8
  call void @_ZN8nlohmann16json_abi_v3_11_36detail22iterator_input_adapterIPKcEC2ES4_S4_(ptr noundef nonnull align 8 dereferenceable(16) %retval, ptr noundef %0, ptr noundef %1)
  %2 = load { ptr, ptr }, ptr %retval, align 8
  ret { ptr, ptr } %2
}

; Function Attrs: mustprogress nounwind willreturn memory(read) uwtable
define linkonce_odr dso_local noundef signext i8 @_ZN8nlohmann16json_abi_v3_11_36detail5lexerINS0_10basic_jsonISt3mapSt6vectorNSt7__cxx1112basic_stringIcSt11char_traitsIcESaIcEEEblmdSaNS0_14adl_serializerES5_IhSaIhEEvEENS1_22iterator_input_adapterIPKcEEE17get_decimal_pointEv() #11 comdat align 2 {
entry:
  %loc = alloca ptr, align 8
  %call = call ptr @localeconv() #16
  store ptr %call, ptr %loc, align 8
  %0 = load ptr, ptr %loc, align 8
  %decimal_point = getelementptr inbounds %struct.lconv, ptr %0, i32 0, i32 0
  %1 = load ptr, ptr %decimal_point, align 8
  %cmp = icmp eq ptr %1, null
  br i1 %cmp, label %cond.true, label %cond.false

cond.true:                                        ; preds = %entry
  br label %cond.end

cond.false:                                       ; preds = %entry
  %2 = load ptr, ptr %loc, align 8
  %decimal_point1 = getelementptr inbounds %struct.lconv, ptr %2, i32 0, i32 0
  %3 = load ptr, ptr %decimal_point1, align 8
  %4 = load i8, ptr %3, align 1
  br label %cond.end

cond.end:                                         ; preds = %cond.false, %cond.true
  %cond = phi i8 [ 46, %cond.true ], [ %4, %cond.false ]
  ret i8 %cond
}

; Function Attrs: mustprogress nounwind uwtable
define linkonce_odr dso_local void @_ZNSt6vectorIcSaIcEEC2Ev(ptr noundef nonnull align 8 dereferenceable(24) %this) unnamed_addr #1 comdat align 2 {
entry:
  %this.addr = alloca ptr, align 8
  store ptr %this, ptr %this.addr, align 8
  %this1 = load ptr, ptr %this.addr, align 8
  call void @_ZNSt12_Vector_baseIcSaIcEEC2Ev(ptr noundef nonnull align 8 dereferenceable(24) %this1) #16
  ret void
}

; Function Attrs: mustprogress nounwind uwtable
define linkonce_odr dso_local void @_ZN8nlohmann16json_abi_v3_11_36detail10position_tC2Ev(ptr noundef nonnull align 8 dereferenceable(24) %this) unnamed_addr #1 comdat align 2 {
entry:
  %this.addr = alloca ptr, align 8
  store ptr %this, ptr %this.addr, align 8
  %this1 = load ptr, ptr %this.addr, align 8
  %chars_read_total = getelementptr inbounds %"struct.nlohmann::json_abi_v3_11_3::detail::position_t", ptr %this1, i32 0, i32 0
  store i64 0, ptr %chars_read_total, align 8
  %chars_read_current_line = getelementptr inbounds %"struct.nlohmann::json_abi_v3_11_3::detail::position_t", ptr %this1, i32 0, i32 1
  store i64 0, ptr %chars_read_current_line, align 8
  %lines_read = getelementptr inbounds %"struct.nlohmann::json_abi_v3_11_3::detail::position_t", ptr %this1, i32 0, i32 2
  store i64 0, ptr %lines_read, align 8
  ret void
}

; Function Attrs: mustprogress nounwind uwtable
define linkonce_odr dso_local noundef i32 @_ZNSt11char_traitsIcE3eofEv() #1 comdat align 2 {
entry:
  ret i32 -1
}

; Function Attrs: mustprogress uwtable
define linkonce_odr dso_local { ptr, ptr } @_ZN8nlohmann16json_abi_v3_11_36detail13input_adapterIPKcEENS1_30iterator_input_adapter_factoryIT_vE12adapter_typeES6_S6_(ptr noundef %first, ptr noundef %last) #4 comdat {
entry:
  %retval = alloca %"class.nlohmann::json_abi_v3_11_3::detail::iterator_input_adapter", align 8
  %first.addr = alloca ptr, align 8
  %last.addr = alloca ptr, align 8
  store ptr %first, ptr %first.addr, align 8
  store ptr %last, ptr %last.addr, align 8
  %0 = load ptr, ptr %first.addr, align 8
  %1 = load ptr, ptr %last.addr, align 8
  %call = call { ptr, ptr } @_ZN8nlohmann16json_abi_v3_11_36detail30iterator_input_adapter_factoryIPKcvE6createES4_S4_(ptr noundef %0, ptr noundef %1)
  %2 = getelementptr inbounds { ptr, ptr }, ptr %retval, i32 0, i32 0
  %3 = extractvalue { ptr, ptr } %call, 0
  store ptr %3, ptr %2, align 8
  %4 = getelementptr inbounds { ptr, ptr }, ptr %retval, i32 0, i32 1
  %5 = extractvalue { ptr, ptr } %call, 1
  store ptr %5, ptr %4, align 8
  %6 = load { ptr, ptr }, ptr %retval, align 8
  ret { ptr, ptr } %6
}

; Function Attrs: mustprogress nounwind uwtable
define linkonce_odr dso_local void @_ZN8nlohmann16json_abi_v3_11_36detail5lexerINS0_10basic_jsonISt3mapSt6vectorNSt7__cxx1112basic_stringIcSt11char_traitsIcESaIcEEEblmdSaNS0_14adl_serializerES5_IhSaIhEEvEENS1_22iterator_input_adapterIPKcEEEC2EOSJ_b(ptr noundef nonnull align 8 dereferenceable(148) %this, ptr noundef nonnull align 8 dereferenceable(16) %adapter, i1 noundef zeroext %ignore_comments_) unnamed_addr #1 comdat align 2 {
entry:
  %this.addr = alloca ptr, align 8
  %adapter.addr = alloca ptr, align 8
  %ignore_comments_.addr = alloca i8, align 1
  store ptr %this, ptr %this.addr, align 8
  store ptr %adapter, ptr %adapter.addr, align 8
  %frombool = zext i1 %ignore_comments_ to i8
  store i8 %frombool, ptr %ignore_comments_.addr, align 1
  %this1 = load ptr, ptr %this.addr, align 8
  %ia = getelementptr inbounds %"class.nlohmann::json_abi_v3_11_3::detail::lexer", ptr %this1, i32 0, i32 0
  %0 = load ptr, ptr %adapter.addr, align 8
  call void @llvm.memcpy.p0.p0.i64(ptr align 8 %ia, ptr align 8 %0, i64 16, i1 false)
  %ignore_comments = getelementptr inbounds %"class.nlohmann::json_abi_v3_11_3::detail::lexer", ptr %this1, i32 0, i32 1
  %1 = load i8, ptr %ignore_comments_.addr, align 1
  %tobool = trunc i8 %1 to i1
  %frombool2 = zext i1 %tobool to i8
  store i8 %frombool2, ptr %ignore_comments, align 8
  %current = getelementptr inbounds %"class.nlohmann::json_abi_v3_11_3::detail::lexer", ptr %this1, i32 0, i32 3
  %call = call noundef i32 @_ZNSt11char_traitsIcE3eofEv() #16
  store i32 %call, ptr %current, align 4
  %next_unget = getelementptr inbounds %"class.nlohmann::json_abi_v3_11_3::detail::lexer", ptr %this1, i32 0, i32 4
  store i8 0, ptr %next_unget, align 8
  %position = getelementptr inbounds %"class.nlohmann::json_abi_v3_11_3::detail::lexer", ptr %this1, i32 0, i32 6
  call void @llvm.memset.p0.i64(ptr align 8 %position, i8 0, i64 24, i1 false)
  call void @_ZN8nlohmann16json_abi_v3_11_36detail10position_tC2Ev(ptr noundef nonnull align 8 dereferenceable(24) %position) #16
  %token_string = getelementptr inbounds %"class.nlohmann::json_abi_v3_11_3::detail::lexer", ptr %this1, i32 0, i32 7
  call void @llvm.memset.p0.i64(ptr align 8 %token_string, i8 0, i64 24, i1 false)
  call void @_ZNSt6vectorIcSaIcEEC2Ev(ptr noundef nonnull align 8 dereferenceable(24) %token_string) #16
  %token_buffer = getelementptr inbounds %"class.nlohmann::json_abi_v3_11_3::detail::lexer", ptr %this1, i32 0, i32 8
  call void @_ZNSt7__cxx1112basic_stringIcSt11char_traitsIcESaIcEEC1Ev(ptr noundef nonnull align 8 dereferenceable(32) %token_buffer) #16
  %error_message = getelementptr inbounds %"class.nlohmann::json_abi_v3_11_3::detail::lexer", ptr %this1, i32 0, i32 9
  store ptr @.str, ptr %error_message, align 8
  %value_integer = getelementptr inbounds %"class.nlohmann::json_abi_v3_11_3::detail::lexer", ptr %this1, i32 0, i32 10
  store i64 0, ptr %value_integer, align 8
  %value_unsigned = getelementptr inbounds %"class.nlohmann::json_abi_v3_11_3::detail::lexer", ptr %this1, i32 0, i32 11
  store i64 0, ptr %value_unsigned, align 8
  %value_float = getelementptr inbounds %"class.nlohmann::json_abi_v3_11_3::detail::lexer", ptr %this1, i32 0, i32 12
  store double 0.000000e+00, ptr %value_float, align 8
  %decimal_point_char = getelementptr inbounds %"class.nlohmann::json_abi_v3_11_3::detail::lexer", ptr %this1, i32 0, i32 13
  %call3 = call noundef signext i8 @_ZN8nlohmann16json_abi_v3_11_36detail5lexerINS0_10basic_jsonISt3mapSt6vectorNSt7__cxx1112basic_stringIcSt11char_traitsIcESaIcEEEblmdSaNS0_14adl_serializerES5_IhSaIhEEvEENS1_22iterator_input_adapterIPKcEEE17get_decimal_pointEv() #17
  %conv = sext i8 %call3 to i32
  store i32 %conv, ptr %decimal_point_char, align 8
  ret void
}

; Function Attrs: mustprogress uwtable
define linkonce_odr dso_local { ptr, ptr } @_ZN8nlohmann16json_abi_v3_11_36detail13input_adapterIPKcTnNSt9enable_ifIXaaaaaasr3std10is_pointerIT_EE5valuentsr3std8is_arrayIS6_EE5valuesr3std11is_integralINSt14remove_pointerIS6_E4typeEEE5valueeqstS9_Li1EEiE4typeELi0EEENS1_22iterator_input_adapterIS4_EES6_(ptr noundef %b) #4 comdat {
entry:
  %retval = alloca %"class.nlohmann::json_abi_v3_11_3::detail::iterator_input_adapter", align 8
  %b.addr = alloca ptr, align 8
  %length = alloca i64, align 8
  %ptr = alloca ptr, align 8
  store ptr %b, ptr %b.addr, align 8
  %0 = load ptr, ptr %b.addr, align 8
  %call = call i64 @strlen(ptr noundef %0) #17
  store i64 %call, ptr %length, align 8
  %1 = load ptr, ptr %b.addr, align 8
  store ptr %1, ptr %ptr, align 8
  %2 = load ptr, ptr %ptr, align 8
  %3 = load ptr, ptr %ptr, align 8
  %4 = load i64, ptr %length, align 8
  %add.ptr = getelementptr inbounds i8, ptr %3, i64 %4
  %call1 = call { ptr, ptr } @_ZN8nlohmann16json_abi_v3_11_36detail13input_adapterIPKcEENS1_30iterator_input_adapter_factoryIT_vE12adapter_typeES6_S6_(ptr noundef %2, ptr noundef %add.ptr)
  %5 = getelementptr inbounds { ptr, ptr }, ptr %retval, i32 0, i32 0
  %6 = extractvalue { ptr, ptr } %call1, 0
  store ptr %6, ptr %5, align 8
  %7 = getelementptr inbounds { ptr, ptr }, ptr %retval, i32 0, i32 1
  %8 = extractvalue { ptr, ptr } %call1, 1
  store ptr %8, ptr %7, align 8
  %9 = load { ptr, ptr }, ptr %retval, align 8
  ret { ptr, ptr } %9
}

; Function Attrs: mustprogress uwtable
define internal noundef i32 @_ZN12_GLOBAL__N_111scan_stringB5cxx11EPKcb(ptr noundef %s, i1 noundef zeroext %ignore_comments) #4 personality ptr @__gxx_personality_v0 {
entry:
  %s.addr = alloca ptr, align 8
  %ignore_comments.addr = alloca i8, align 1
  %ia = alloca %"class.nlohmann::json_abi_v3_11_3::detail::iterator_input_adapter", align 8
  %ref.tmp = alloca %"class.nlohmann::json_abi_v3_11_3::detail::lexer", align 8
  %exn.slot = alloca ptr, align 8
  %ehselector.slot = alloca i32, align 4
  store ptr %s, ptr %s.addr, align 8
  %frombool = zext i1 %ignore_comments to i8
  store i8 %frombool, ptr %ignore_comments.addr, align 1
  %0 = load ptr, ptr %s.addr, align 8
  %call = call { ptr, ptr } @_ZN8nlohmann16json_abi_v3_11_36detail13input_adapterIPKcTnNSt9enable_ifIXaaaaaasr3std10is_pointerIT_EE5valuentsr3std8is_arrayIS6_EE5valuesr3std11is_integralINSt14remove_pointerIS6_E4typeEEE5valueeqstS9_Li1EEiE4typeELi0EEENS1_22iterator_input_adapterIS4_EES6_(ptr noundef %0)
  %1 = getelementptr inbounds { ptr, ptr }, ptr %ia, i32 0, i32 0
  %2 = extractvalue { ptr, ptr } %call, 0
  store ptr %2, ptr %1, align 8
  %3 = getelementptr inbounds { ptr, ptr }, ptr %ia, i32 0, i32 1
  %4 = extractvalue { ptr, ptr } %call, 1
  store ptr %4, ptr %3, align 8
  %5 = load i8, ptr %ignore_comments.addr, align 1
  %tobool = trunc i8 %5 to i1
  call void @_ZN8nlohmann16json_abi_v3_11_36detail5lexerINS0_10basic_jsonISt3mapSt6vectorNSt7__cxx1112basic_stringIcSt11char_traitsIcESaIcEEEblmdSaNS0_14adl_serializerES5_IhSaIhEEvEENS1_22iterator_input_adapterIPKcEEEC2EOSJ_b(ptr noundef nonnull align 8 dereferenceable(148) %ref.tmp, ptr noundef nonnull align 8 dereferenceable(16) %ia, i1 noundef zeroext %tobool) #16
  %call1 = invoke noundef i32 @_ZN8nlohmann16json_abi_v3_11_36detail5lexerINS0_10basic_jsonISt3mapSt6vectorNSt7__cxx1112basic_stringIcSt11char_traitsIcESaIcEEEblmdSaNS0_14adl_serializerES5_IhSaIhEEvEENS1_22iterator_input_adapterIPKcEEE4scanEv(ptr noundef nonnull align 8 dereferenceable(148) %ref.tmp)
          to label %invoke.cont unwind label %lpad

invoke.cont:                                      ; preds = %entry
  call void @_ZN8nlohmann16json_abi_v3_11_36detail5lexerINS0_10basic_jsonISt3mapSt6vectorNSt7__cxx1112basic_stringIcSt11char_traitsIcESaIcEEEblmdSaNS0_14adl_serializerES5_IhSaIhEEvEENS1_22iterator_input_adapterIPKcEEED2Ev(ptr noundef nonnull align 8 dereferenceable(148) %ref.tmp) #16
  ret i32 %call1

lpad:                                             ; preds = %entry
  %6 = landingpad { ptr, i32 }
          cleanup
  %7 = extractvalue { ptr, i32 } %6, 0
  store ptr %7, ptr %exn.slot, align 8
  %8 = extractvalue { ptr, i32 } %6, 1
  store i32 %8, ptr %ehselector.slot, align 4
  call void @_ZN8nlohmann16json_abi_v3_11_36detail5lexerINS0_10basic_jsonISt3mapSt6vectorNSt7__cxx1112basic_stringIcSt11char_traitsIcESaIcEEEblmdSaNS0_14adl_serializerES5_IhSaIhEEvEENS1_22iterator_input_adapterIPKcEEED2Ev(ptr noundef nonnull align 8 dereferenceable(148) %ref.tmp) #16
  br label %eh.resume

eh.resume:                                        ; preds = %lpad
  %exn = load ptr, ptr %exn.slot, align 8
  %sel = load i32, ptr %ehselector.slot, align 4
  %lpad.val = insertvalue { ptr, i32 } poison, ptr %exn, 0
  %lpad.val2 = insertvalue { ptr, i32 } %lpad.val, i32 %sel, 1
  resume { ptr, i32 } %lpad.val2
}