; Function Attrs: mustprogress uwtable
define internal fastcc noundef i32 @_ZN12_GLOBAL__N_111scan_stringB5cxx11EPKcb(ptr noundef %s, i1 noundef zeroext %ignore_comments) unnamed_addr #2 personality ptr @__gxx_personality_v0 {
entry:
  %ref.tmp = alloca %"class.nlohmann::json_abi_v3_11_3::detail::lexer", align 8
  %call.i = tail call i64 @strlen(ptr noundef nonnull dereferenceable(1) %s) #17
  %add.ptr.i = getelementptr inbounds i8, ptr %s, i64 %call.i
  %frombool.i = zext i1 %ignore_comments to i8
  store ptr %s, ptr %ref.tmp, align 8
  %ia.sroa.2.0.ref.tmp.sroa_idx = getelementptr inbounds i8, ptr %ref.tmp, i64 8
  store ptr %add.ptr.i, ptr %ia.sroa.2.0.ref.tmp.sroa_idx, align 8
  %ignore_comments.i = getelementptr inbounds i8, ptr %ref.tmp, i64 16
  store i8 %frombool.i, ptr %ignore_comments.i, align 8
  %current.i = getelementptr inbounds i8, ptr %ref.tmp, i64 20
  store i32 -1, ptr %current.i, align 4
  %next_unget.i = getelementptr inbounds i8, ptr %ref.tmp, i64 24
  store i8 0, ptr %next_unget.i, align 8
  %position.i = getelementptr inbounds i8, ptr %ref.tmp, i64 32
  %token_string.i = getelementptr inbounds i8, ptr %ref.tmp, i64 56
  call void @llvm.memset.p0.i64(ptr noundef nonnull align 8 dereferenceable(48) %position.i, i8 0, i64 48, i1 false)
  call void @_ZNSaIcEC2Ev(ptr noundef nonnull align 1 dereferenceable(1) %token_string.i) #18
  call void @llvm.memset.p0.i64(ptr noundef nonnull align 8 dereferenceable(24) %token_string.i, i8 0, i64 24, i1 false)
  %token_buffer.i = getelementptr inbounds i8, ptr %ref.tmp, i64 80
  call void @_ZNSt7__cxx1112basic_stringIcSt11char_traitsIcESaIcEEC1Ev(ptr noundef nonnull align 8 dereferenceable(32) %token_buffer.i) #18
  %error_message.i = getelementptr inbounds i8, ptr %ref.tmp, i64 112
  store ptr @.str, ptr %error_message.i, align 8
  %value_integer.i = getelementptr inbounds i8, ptr %ref.tmp, i64 120
  call void @llvm.memset.p0.i64(ptr noundef nonnull align 8 dereferenceable(24) %value_integer.i, i8 0, i64 24, i1 false)
  %call.i.i = call ptr @localeconv() #18
  %0 = load ptr, ptr %call.i.i, align 8
  %cmp.i.i = icmp eq ptr %0, null
  br i1 %cmp.i.i, label %_ZN8nlohmann16json_abi_v3_11_36detail5lexerINS0_10basic_jsonISt3mapSt6vectorNSt7__cxx1112basic_stringIcSt11char_traitsIcESaIcEEEblmdSaNS0_14adl_serializerES5_IhSaIhEEvEENS1_22iterator_input_adapterIPKcEEEC2EOSJ_b.exit, label %cond.false.i.i

cond.false.i.i:                                   ; preds = %entry
  %1 = load i8, ptr %0, align 1
  %2 = sext i8 %1 to i32
  br label %_ZN8nlohmann16json_abi_v3_11_36detail5lexerINS0_10basic_jsonISt3mapSt6vectorNSt7__cxx1112basic_stringIcSt11char_traitsIcESaIcEEEblmdSaNS0_14adl_serializerES5_IhSaIhEEvEENS1_22iterator_input_adapterIPKcEEEC2EOSJ_b.exit

_ZN8nlohmann16json_abi_v3_11_36detail5lexerINS0_10basic_jsonISt3mapSt6vectorNSt7__cxx1112basic_stringIcSt11char_traitsIcESaIcEEEblmdSaNS0_14adl_serializerES5_IhSaIhEEvEENS1_22iterator_input_adapterIPKcEEEC2EOSJ_b.exit: ; preds = %entry, %cond.false.i.i
  %cond.i.i = phi i32 [ %2, %cond.false.i.i ], [ 46, %entry ]
  %decimal_point_char.i = getelementptr inbounds i8, ptr %ref.tmp, i64 144
  store i32 %cond.i.i, ptr %decimal_point_char.i, align 8
  %call1 = invoke noundef i32 @_ZN8nlohmann16json_abi_v3_11_36detail5lexerINS0_10basic_jsonISt3mapSt6vectorNSt7__cxx1112basic_stringIcSt11char_traitsIcESaIcEEEblmdSaNS0_14adl_serializerES5_IhSaIhEEvEENS1_22iterator_input_adapterIPKcEEE4scanEv(ptr noundef nonnull align 8 dereferenceable(148) %ref.tmp)
          to label %invoke.cont unwind label %lpad

invoke.cont:                                      ; preds = %_ZN8nlohmann16json_abi_v3_11_36detail5lexerINS0_10basic_jsonISt3mapSt6vectorNSt7__cxx1112basic_stringIcSt11char_traitsIcESaIcEEEblmdSaNS0_14adl_serializerES5_IhSaIhEEvEENS1_22iterator_input_adapterIPKcEEEC2EOSJ_b.exit
  call void @_ZNSt7__cxx1112basic_stringIcSt11char_traitsIcESaIcEED1Ev(ptr noundef nonnull align 8 dereferenceable(32) %token_buffer.i) #18
  %3 = load ptr, ptr %token_string.i, align 8
  %tobool.not.i.i.i.i = icmp eq ptr %3, null
  br i1 %tobool.not.i.i.i.i, label %_ZN8nlohmann16json_abi_v3_11_36detail5lexerINS0_10basic_jsonISt3mapSt6vectorNSt7__cxx1112basic_stringIcSt11char_traitsIcESaIcEEEblmdSaNS0_14adl_serializerES5_IhSaIhEEvEENS1_22iterator_input_adapterIPKcEEED2Ev.exit, label %if.then.i.i.i.i

if.then.i.i.i.i:                                  ; preds = %invoke.cont
  call void @_ZdlPv(ptr noundef nonnull %3) #19
  br label %_ZN8nlohmann16json_abi_v3_11_36detail5lexerINS0_10basic_jsonISt3mapSt6vectorNSt7__cxx1112basic_stringIcSt11char_traitsIcESaIcEEEblmdSaNS0_14adl_serializerES5_IhSaIhEEvEENS1_22iterator_input_adapterIPKcEEED2Ev.exit

_ZN8nlohmann16json_abi_v3_11_36detail5lexerINS0_10basic_jsonISt3mapSt6vectorNSt7__cxx1112basic_stringIcSt11char_traitsIcESaIcEEEblmdSaNS0_14adl_serializerES5_IhSaIhEEvEENS1_22iterator_input_adapterIPKcEEED2Ev.exit: ; preds = %invoke.cont, %if.then.i.i.i.i
  call void @_ZNSaIcED2Ev(ptr noundef nonnull align 1 dereferenceable(1) %token_string.i) #18
  ret i32 %call1

lpad:                                             ; preds = %_ZN8nlohmann16json_abi_v3_11_36detail5lexerINS0_10basic_jsonISt3mapSt6vectorNSt7__cxx1112basic_stringIcSt11char_traitsIcESaIcEEEblmdSaNS0_14adl_serializerES5_IhSaIhEEvEENS1_22iterator_input_adapterIPKcEEEC2EOSJ_b.exit
  %4 = landingpad { ptr, i32 }
          cleanup
  call void @_ZN8nlohmann16json_abi_v3_11_36detail5lexerINS0_10basic_jsonISt3mapSt6vectorNSt7__cxx1112basic_stringIcSt11char_traitsIcESaIcEEEblmdSaNS0_14adl_serializerES5_IhSaIhEEvEENS1_22iterator_input_adapterIPKcEEED2Ev(ptr noundef nonnull align 8 dereferenceable(148) %ref.tmp) #18
  resume { ptr, i32 } %4
}